; Function Attrs: nounwind uwtable
define ptr @l_Lean_Grind_CommRing_Poly_denoteExpr_denoteTerm___rarg(ptr noundef %0, ptr noundef %1, ptr noundef %2, ptr noundef %3) #0 {
  %5 = load ptr, ptr @l_Lean_Grind_CommRing_Mon_denoteExpr___rarg___closed__1, align 8, !tbaa !11
  %6 = ptrtoint ptr %2 to i64
  %7 = ptrtoint ptr %5 to i64
  %8 = and i64 %6, 1
  %9 = and i64 %8, %7
  %or.cond.not.i.i = icmp eq i64 %9, 0
  br i1 %or.cond.not.i.i, label %lean_int_dec_eq.exit, label %10, !prof !16

10:                                               ; preds = %4
  %11 = icmp eq ptr %2, %5
  br i1 %11, label %51, label %13

lean_int_dec_eq.exit:                             ; preds = %4
  %12 = tail call zeroext i1 @lean_int_big_eq(ptr noundef %2, ptr noundef %5) #3
  br i1 %12, label %51, label %13

13:                                               ; preds = %10, %lean_int_dec_eq.exit
  %14 = getelementptr inbounds nuw i8, ptr %0, i64 16
  %15 = load ptr, ptr %14, align 8, !tbaa !11
  %16 = ptrtoint ptr %15 to i64
  %17 = and i64 %16, 1
  %.not40 = icmp eq i64 %17, 0
  br i1 %.not40, label %18, label %lean_inc.exit26

18:                                               ; preds = %13
  %.val.i = load i32, ptr %15, align 4, !tbaa !6
  %19 = icmp sgt i32 %.val.i, 0
  br i1 %19, label %20, label %22, !prof !5

20:                                               ; preds = %18
  %21 = add nuw i32 %.val.i, 1
  store i32 %21, ptr %15, align 4, !tbaa !6
  br label %24

22:                                               ; preds = %18
  %.not.i28 = icmp eq i32 %.val.i, 0
  br i1 %.not.i28, label %lean_inc.exit26, label %23

23:                                               ; preds = %22
  tail call void @lean_inc_ref_cold(ptr noundef nonnull %15) #3
  %.val.i29.pr = load i32, ptr %15, align 4, !tbaa !6
  br label %24

24:                                               ; preds = %23, %20
  %.val.i29 = phi i32 [ %.val.i29.pr, %23 ], [ %21, %20 ]
  %25 = icmp sgt i32 %.val.i29, 0
  br i1 %25, label %26, label %28, !prof !15

26:                                               ; preds = %24
  %27 = add nuw i32 %.val.i29, 1
  store i32 %27, ptr %15, align 4, !tbaa !6
  br label %lean_inc.exit26

28:                                               ; preds = %24
  %.not.i30 = icmp eq i32 %.val.i29, 0
  br i1 %.not.i30, label %lean_inc.exit26, label %29

29:                                               ; preds = %28
  tail call void @lean_inc_ref_cold(ptr noundef nonnull %15) #3
  br label %lean_inc.exit26

lean_inc.exit26:                                  ; preds = %22, %29, %28, %26, %13
  %30 = ptrtoint ptr %1 to i64
  %31 = and i64 %30, 1
  %.not41 = icmp eq i64 %31, 0
  br i1 %.not41, label %32, label %lean_inc.exit

32:                                               ; preds = %lean_inc.exit26
  %.val.i32 = load i32, ptr %1, align 4, !tbaa !6
  %33 = icmp sgt i32 %.val.i32, 0
  br i1 %33, label %34, label %36, !prof !5

34:                                               ; preds = %32
  %35 = add nuw i32 %.val.i32, 1
  store i32 %35, ptr %1, align 4, !tbaa !6
  br label %lean_inc.exit

36:                                               ; preds = %32
  %.not.i33 = icmp eq i32 %.val.i32, 0
  br i1 %.not.i33, label %lean_inc.exit, label %37

37:                                               ; preds = %36
  tail call void @lean_inc_ref_cold(ptr noundef nonnull %1) #3
  br label %lean_inc.exit

lean_inc.exit:                                    ; preds = %37, %36, %34, %lean_inc.exit26
  tail call void @lean_inc_heartbeat() #3
  %38 = tail call noalias ptr @mi_malloc_small(i64 noundef 64) #3
  %39 = icmp eq ptr %38, null
  br i1 %39, label %40, label %lean_alloc_closure.exit

40:                                               ; preds = %lean_inc.exit
  tail call void @lean_internal_panic_out_of_memory() #4
  unreachable

lean_alloc_closure.exit:                          ; preds = %lean_inc.exit
  %41 = getelementptr inbounds nuw i8, ptr %38, i64 4
  store i32 1, ptr %38, align 4, !tbaa !6
  store i32 -184549312, ptr %41, align 4
  %42 = getelementptr inbounds nuw i8, ptr %38, i64 8
  store ptr @l_Lean_Grind_CommRing_Poly_denoteExpr_denoteTerm___rarg___lambda__3, ptr %42, align 8, !tbaa !11
  %43 = getelementptr inbounds nuw i8, ptr %38, i64 16
  store i16 6, ptr %43, align 8, !tbaa !13
  %44 = getelementptr inbounds nuw i8, ptr %38, i64 18
  store i16 5, ptr %44, align 2, !tbaa !13
  %45 = getelementptr inbounds nuw i8, ptr %38, i64 24
  store ptr %0, ptr %45, align 8, !tbaa !11
  %46 = getelementptr inbounds nuw i8, ptr %38, i64 32
  store ptr %1, ptr %46, align 8, !tbaa !11
  %47 = getelementptr inbounds nuw i8, ptr %38, i64 40
  store ptr %2, ptr %47, align 8, !tbaa !11
  %48 = getelementptr inbounds nuw i8, ptr %38, i64 48
  store ptr %3, ptr %48, align 8, !tbaa !11
  %49 = getelementptr inbounds nuw i8, ptr %38, i64 56
  store ptr %15, ptr %49, align 8, !tbaa !11
  %50 = tail call ptr @lean_apply_4(ptr noundef %15, ptr noundef nonnull inttoptr (i64 1 to ptr), ptr noundef nonnull inttoptr (i64 1 to ptr), ptr noundef %1, ptr noundef nonnull %38) #3
  br label %60

51:                                               ; preds = %10, %lean_int_dec_eq.exit
  %.not = icmp eq i64 %8, 0
  br i1 %.not, label %52, label %lean_dec.exit

52:                                               ; preds = %51
  %53 = load i32, ptr %2, align 4, !tbaa !6
  %54 = icmp sgt i32 %53, 1
  br i1 %54, label %55, label %57, !prof !5

55:                                               ; preds = %52
  %56 = add nsw i32 %53, -1
  store i32 %56, ptr %2, align 4, !tbaa !6
  br label %lean_dec.exit

57:                                               ; preds = %52
  %.not.i = icmp eq i32 %53, 0
  br i1 %.not.i, label %lean_dec.exit, label %58

58:                                               ; preds = %57
  tail call void @lean_dec_ref_cold(ptr noundef nonnull %2) #3
  br label %lean_dec.exit

lean_dec.exit:                                    ; preds = %58, %57, %55, %51
  %59 = tail call ptr @l_Lean_Grind_CommRing_Mon_denoteExpr___rarg(ptr noundef %0, ptr noundef %1, ptr noundef %3)
  br label %60

60:                                               ; preds = %lean_dec.exit, %lean_alloc_closure.exit
  %.0 = phi ptr [ %50, %lean_alloc_closure.exit ], [ %59, %lean_dec.exit ]
  ret ptr %.0
}